; Function Attrs: mustprogress uwtable
define hidden void @_ZN2cv8tinyxml27XMLNode8SetValueEPKcb(ptr noundef nonnull align 8 captures(none) dereferenceable(88) initializes((40, 48)) %0, ptr noundef %1, i1 noundef zeroext %2) local_unnamed_addr #4 align 2 {
  %4 = getelementptr inbounds nuw i8, ptr %0, i64 24
  %5 = load i32, ptr %4, align 8, !tbaa !3
  %6 = and i32 %5, 512
  %.not.i.i = icmp eq i32 %6, 0
  br i1 %2, label %7, label %15

7:                                                ; preds = %3
  br i1 %.not.i.i, label %_ZN2cv8tinyxml27StrPair14SetInternedStrEPKc.exit, label %8

8:                                                ; preds = %7
  %9 = getelementptr inbounds nuw i8, ptr %0, i64 32
  %10 = load ptr, ptr %9, align 8, !tbaa !10
  %11 = icmp eq ptr %10, null
  br i1 %11, label %_ZN2cv8tinyxml27StrPair14SetInternedStrEPKc.exit, label %12

12:                                               ; preds = %8
  tail call void @_ZdaPv(ptr noundef nonnull %10) #23
  br label %_ZN2cv8tinyxml27StrPair14SetInternedStrEPKc.exit

_ZN2cv8tinyxml27StrPair14SetInternedStrEPKc.exit: ; preds = %7, %8, %12
  store i32 0, ptr %4, align 8, !tbaa !3
  %13 = getelementptr inbounds nuw i8, ptr %0, i64 32
  %14 = getelementptr inbounds nuw i8, ptr %0, i64 40
  store i64 0, ptr %14, align 8
  store ptr %1, ptr %13, align 8, !tbaa !10
  br label %27

15:                                               ; preds = %3
  br i1 %.not.i.i, label %_ZN2cv8tinyxml27StrPair6SetStrEPKci.exit, label %16

16:                                               ; preds = %15
  %17 = getelementptr inbounds nuw i8, ptr %0, i64 32
  %18 = load ptr, ptr %17, align 8, !tbaa !10
  %19 = icmp eq ptr %18, null
  br i1 %19, label %_ZN2cv8tinyxml27StrPair6SetStrEPKci.exit, label %20

20:                                               ; preds = %16
  tail call void @_ZdaPv(ptr noundef nonnull %18) #23
  br label %_ZN2cv8tinyxml27StrPair6SetStrEPKci.exit

_ZN2cv8tinyxml27StrPair6SetStrEPKci.exit:         ; preds = %15, %16, %20
  store i32 0, ptr %4, align 8, !tbaa !3
  %21 = getelementptr inbounds nuw i8, ptr %0, i64 32
  tail call void @llvm.memset.p0.i64(ptr noundef nonnull align 8 dereferenceable(16) %21, i8 0, i64 16, i1 false)
  %22 = tail call i64 @strlen(ptr noundef nonnull readonly dereferenceable(1) %1) #26
  %23 = add i64 %22, 1
  %24 = tail call noalias noundef nonnull ptr @_Znam(i64 noundef %23) #27
  store ptr %24, ptr %21, align 8, !tbaa !10
  tail call void @llvm.memcpy.p0.p0.i64(ptr nonnull align 1 %24, ptr nonnull readonly align 1 %1, i64 %23, i1 false)
  %25 = getelementptr inbounds nuw i8, ptr %24, i64 %22
  %26 = getelementptr inbounds nuw i8, ptr %0, i64 40
  store ptr %25, ptr %26, align 8, !tbaa !11
  store i32 512, ptr %4, align 8, !tbaa !3
  br label %27

27:                                               ; preds = %_ZN2cv8tinyxml27StrPair6SetStrEPKci.exit, %_ZN2cv8tinyxml27StrPair14SetInternedStrEPKc.exit
  ret void
}